target datalayout = "e-m:e-p270:32:32-p271:32:32-p272:64:64-i64:64-i128:128-f80:128-n8:16:32:64-S128"
target triple = "x86_64-pc-linux-gnu"

%"class.icu_77::InputText" = type <{ ptr, i32, [4 x i8], ptr, i8, [7 x i8], ptr, ptr, i32, [4 x i8] }>

; Function Attrs: mustprogress nounwind uwtable
define internal noundef i32 @_ZN6icu_77L16adjustConfidenceEDsi(i16 noundef zeroext %0, i32 noundef %1) #1 {
  %3 = alloca i16, align 2
  %4 = alloca i32, align 4
  store i16 %0, ptr %3, align 2, !tbaa !23
  store i32 %1, ptr %4, align 4, !tbaa !20
  %5 = load i16, ptr %3, align 2, !tbaa !23
  %6 = zext i16 %5 to i32
  %7 = icmp eq i32 %6, 0
  br i1 %7, label %8, label %11

8:                                                ; preds = %2
  %9 = load i32, ptr %4, align 4, !tbaa !20
  %10 = sub nsw i32 %9, 10
  store i32 %10, ptr %4, align 4, !tbaa !20
  br label %27

11:                                               ; preds = %2
  %12 = load i16, ptr %3, align 2, !tbaa !23
  %13 = zext i16 %12 to i32
  %14 = icmp sge i32 %13, 32
  br i1 %14, label %15, label %19

15:                                               ; preds = %11
  %16 = load i16, ptr %3, align 2, !tbaa !23
  %17 = zext i16 %16 to i32
  %18 = icmp sle i32 %17, 255
  br i1 %18, label %23, label %19

19:                                               ; preds = %15, %11
  %20 = load i16, ptr %3, align 2, !tbaa !23
  %21 = zext i16 %20 to i32
  %22 = icmp eq i32 %21, 10
  br i1 %22, label %23, label %26

23:                                               ; preds = %19, %15
  %24 = load i32, ptr %4, align 4, !tbaa !20
  %25 = add nsw i32 %24, 10
  store i32 %25, ptr %4, align 4, !tbaa !20
  br label %26

26:                                               ; preds = %23, %19
  br label %27

27:                                               ; preds = %26, %8
  %28 = load i32, ptr %4, align 4, !tbaa !20
  %29 = icmp slt i32 %28, 0
  br i1 %29, label %30, label %31

30:                                               ; preds = %27
  store i32 0, ptr %4, align 4, !tbaa !20
  br label %36

31:                                               ; preds = %27
  %32 = load i32, ptr %4, align 4, !tbaa !20
  %33 = icmp sgt i32 %32, 100
  br i1 %33, label %34, label %35

34:                                               ; preds = %31
  store i32 100, ptr %4, align 4, !tbaa !20
  br label %35

35:                                               ; preds = %34, %31
  br label %36

36:                                               ; preds = %35, %30
  %37 = load i32, ptr %4, align 4, !tbaa !20
  ret i32 %37
}

; Function Attrs: mustprogress uwtable
define noundef signext i8 @_ZNK6icu_7722CharsetRecog_UTF_16_BE5matchEPNS_9InputTextEPNS_12CharsetMatchE(ptr noundef nonnull align 8 dereferenceable(8) %0, ptr noundef %1, ptr noundef %2) unnamed_addr #3 align 2 {
  %4 = alloca ptr, align 8
  %5 = alloca ptr, align 8
  %6 = alloca ptr, align 8
  %7 = alloca ptr, align 8
  %8 = alloca i32, align 4
  %9 = alloca i32, align 4
  %10 = alloca i32, align 4
  %11 = alloca i32, align 4
  %12 = alloca i32, align 4
  %13 = alloca i16, align 2
  store ptr %0, ptr %4, align 8, !tbaa !8
  store ptr %1, ptr %5, align 8, !tbaa !10
  store ptr %2, ptr %6, align 8, !tbaa !12
  %14 = load ptr, ptr %4, align 8
  call void @llvm.lifetime.start.p0(i64 8, ptr %7) #6
  %15 = load ptr, ptr %5, align 8, !tbaa !10
  %16 = getelementptr inbounds nuw %"class.icu_77::InputText", ptr %15, i32 0, i32 7
  %17 = load ptr, ptr %16, align 8, !tbaa !14
  store ptr %17, ptr %7, align 8, !tbaa !19
  call void @llvm.lifetime.start.p0(i64 4, ptr %8) #6
  store i32 10, ptr %8, align 4, !tbaa !20
  call void @llvm.lifetime.start.p0(i64 4, ptr %9) #6
  %18 = load ptr, ptr %5, align 8, !tbaa !10
  %19 = getelementptr inbounds nuw %"class.icu_77::InputText", ptr %18, i32 0, i32 8
  %20 = load i32, ptr %19, align 8, !tbaa !21
  store i32 %20, ptr %9, align 4, !tbaa !20
  call void @llvm.lifetime.start.p0(i64 4, ptr %10) #6
  %21 = load i32, ptr %9, align 4, !tbaa !20
  %22 = icmp sgt i32 %21, 30
  br i1 %22, label %23, label %24

23:                                               ; preds = %3
  br label %26

24:                                               ; preds = %3
  %25 = load i32, ptr %9, align 4, !tbaa !20
  br label %26

26:                                               ; preds = %24, %23
  %27 = phi i32 [ 30, %23 ], [ %25, %24 ]
  store i32 %27, ptr %10, align 4, !tbaa !20
  call void @llvm.lifetime.start.p0(i64 4, ptr %11) #6
  store i32 0, ptr %11, align 4, !tbaa !20
  br label %28

28:                                               ; preds = %72, %26
  %29 = load i32, ptr %11, align 4, !tbaa !20
  %30 = load i32, ptr %10, align 4, !tbaa !20
  %31 = sub nsw i32 %30, 1
  %32 = icmp slt i32 %29, %31
  br i1 %32, label %34, label %33

33:                                               ; preds = %28
  store i32 2, ptr %12, align 4
  br label %75

34:                                               ; preds = %28
  call void @llvm.lifetime.start.p0(i64 2, ptr %13) #6
  %35 = load ptr, ptr %7, align 8, !tbaa !19
  %36 = load i32, ptr %11, align 4, !tbaa !20
  %37 = sext i32 %36 to i64
  %38 = getelementptr inbounds i8, ptr %35, i64 %37
  %39 = load i8, ptr %38, align 1, !tbaa !22
  %40 = zext i8 %39 to i32
  %41 = shl i32 %40, 8
  %42 = load ptr, ptr %7, align 8, !tbaa !19
  %43 = load i32, ptr %11, align 4, !tbaa !20
  %44 = add nsw i32 %43, 1
  %45 = sext i32 %44 to i64
  %46 = getelementptr inbounds i8, ptr %42, i64 %45
  %47 = load i8, ptr %46, align 1, !tbaa !22
  %48 = zext i8 %47 to i32
  %49 = or i32 %41, %48
  %50 = trunc i32 %49 to i16
  store i16 %50, ptr %13, align 2, !tbaa !23
  %51 = load i32, ptr %11, align 4, !tbaa !20
  %52 = icmp eq i32 %51, 0
  br i1 %52, label %53, label %58

53:                                               ; preds = %34
  %54 = load i16, ptr %13, align 2, !tbaa !23
  %55 = zext i16 %54 to i32
  %56 = icmp eq i32 %55, 65279
  br i1 %56, label %57, label %58

57:                                               ; preds = %53
  store i32 100, ptr %8, align 4, !tbaa !20
  store i32 2, ptr %12, align 4
  br label %69

58:                                               ; preds = %53, %34
  %59 = load i16, ptr %13, align 2, !tbaa !23
  %60 = load i32, ptr %8, align 4, !tbaa !20
  %61 = call noundef i32 @_ZN6icu_77L16adjustConfidenceEDsi(i16 noundef zeroext %59, i32 noundef %60)
  store i32 %61, ptr %8, align 4, !tbaa !20
  %62 = load i32, ptr %8, align 4, !tbaa !20
  %63 = icmp eq i32 %62, 0
  br i1 %63, label %67, label %64

64:                                               ; preds = %58
  %65 = load i32, ptr %8, align 4, !tbaa !20
  %66 = icmp eq i32 %65, 100
  br i1 %66, label %67, label %68

67:                                               ; preds = %64, %58
  store i32 2, ptr %12, align 4
  br label %69

68:                                               ; preds = %64
  store i32 0, ptr %12, align 4
  br label %69

69:                                               ; preds = %68, %67, %57
  call void @llvm.lifetime.end.p0(i64 2, ptr %13) #6
  %70 = load i32, ptr %12, align 4
  switch i32 %70, label %75 [
    i32 0, label %71
  ]

71:                                               ; preds = %69
  br label %72

72:                                               ; preds = %71
  %73 = load i32, ptr %11, align 4, !tbaa !20
  %74 = add nsw i32 %73, 2
  store i32 %74, ptr %11, align 4, !tbaa !20
  br label %28, !llvm.loop !25

75:                                               ; preds = %69, %33
  call void @llvm.lifetime.end.p0(i64 4, ptr %11) #6
  br label %76

76:                                               ; preds = %75
  %77 = load i32, ptr %10, align 4, !tbaa !20
  %78 = icmp slt i32 %77, 4
  br i1 %78, label %79, label %83

79:                                               ; preds = %76
  %80 = load i32, ptr %8, align 4, !tbaa !20
  %81 = icmp slt i32 %80, 100
  br i1 %81, label %82, label %83

82:                                               ; preds = %79
  store i32 0, ptr %8, align 4, !tbaa !20
  br label %83

83:                                               ; preds = %82, %79, %76
  %84 = load ptr, ptr %6, align 8, !tbaa !12
  %85 = load ptr, ptr %5, align 8, !tbaa !10
  %86 = load i32, ptr %8, align 4, !tbaa !20
  call void @_ZN6icu_7712CharsetMatch3setEPNS_9InputTextEPKNS_17CharsetRecognizerEiPKcS7_(ptr noundef nonnull align 8 dereferenceable(32) %84, ptr noundef %85, ptr noundef %14, i32 noundef %86, ptr noundef null, ptr noundef null)
  %87 = load i32, ptr %8, align 4, !tbaa !20
  %88 = icmp sgt i32 %87, 0
  %89 = zext i1 %88 to i8
  store i32 1, ptr %12, align 4
  call void @llvm.lifetime.end.p0(i64 4, ptr %10) #6
  call void @llvm.lifetime.end.p0(i64 4, ptr %9) #6
  call void @llvm.lifetime.end.p0(i64 4, ptr %8) #6
  call void @llvm.lifetime.end.p0(i64 8, ptr %7) #6
  ret i8 %89
}