; Function Attrs: mustprogress uwtable
define noundef signext range(i8 0, 2) i8 @_ZNK6icu_7722CharsetRecog_UTF_16_BE5matchEPNS_9InputTextEPNS_12CharsetMatchE(ptr noundef nonnull align 8 dereferenceable(8) %0, ptr noundef %1, ptr noundef %2) unnamed_addr #5 align 2 {
  %4 = getelementptr inbounds nuw i8, ptr %1, i64 40
  %5 = load ptr, ptr %4, align 8, !tbaa !3
  %6 = getelementptr inbounds nuw i8, ptr %1, i64 48
  %7 = load i32, ptr %6, align 8, !tbaa !11
  %8 = tail call i32 @llvm.smin.i32(i32 %7, i32 30)
  %9 = add nsw i32 %8, -1
  %10 = icmp sgt i32 %7, 1
  br i1 %10, label %.lr.ph, label %.thread

.lr.ph:                                           ; preds = %3, %30
  %indvars.iv = phi i64 [ %indvars.iv.next, %30 ], [ 0, %3 ]
  %.036 = phi i32 [ %.1.i, %30 ], [ 10, %3 ]
  %11 = getelementptr inbounds nuw i8, ptr %5, i64 %indvars.iv
  %12 = load i8, ptr %11, align 1, !tbaa !12
  %13 = zext i8 %12 to i16
  %14 = shl nuw i16 %13, 8
  %15 = or disjoint i64 %indvars.iv, 1
  %16 = getelementptr inbounds nuw i8, ptr %5, i64 %15
  %17 = load i8, ptr %16, align 1, !tbaa !12
  %18 = zext i8 %17 to i16
  %19 = or disjoint i16 %14, %18
  %20 = icmp eq i64 %indvars.iv, 0
  %21 = icmp eq i16 %19, -257
  %or.cond = select i1 %20, i1 %21, i1 false
  br i1 %or.cond, label %.thread, label %22

22:                                               ; preds = %.lr.ph
  %23 = icmp eq i16 %19, 0
  br i1 %23, label %24, label %26

24:                                               ; preds = %22
  %25 = add nsw i32 %.036, -10
  br label %_ZN6icu_77L16adjustConfidenceEDsi.exit

26:                                               ; preds = %22
  %27 = add i16 %19, -32
  %or.cond.i = icmp ult i16 %27, 224
  %28 = icmp eq i16 %19, 10
  %or.cond5.i = or i1 %28, %or.cond.i
  %29 = add nuw nsw i32 %.036, 10
  %spec.select.i = select i1 %or.cond5.i, i32 %29, i32 %.036
  br label %_ZN6icu_77L16adjustConfidenceEDsi.exit

_ZN6icu_77L16adjustConfidenceEDsi.exit:           ; preds = %24, %26
  %.0.i = phi i32 [ %25, %24 ], [ %spec.select.i, %26 ]
  %spec.store.select.i = tail call i32 @llvm.smin.i32(i32 %.0.i, i32 100)
  %.1.i = tail call noundef range(i32 0, 101) i32 @llvm.smax.i32(i32 %spec.store.select.i, i32 0)
  switch i32 %.1.i, label %30 [
    i32 100, label %.thread
    i32 0, label %.thread
  ]

30:                                               ; preds = %_ZN6icu_77L16adjustConfidenceEDsi.exit
  %indvars.iv.next = add nuw nsw i64 %indvars.iv, 2
  %31 = trunc nuw i64 %indvars.iv.next to i32
  %32 = icmp sgt i32 %9, %31
  br i1 %32, label %.lr.ph, label %.thread, !llvm.loop !13

.thread:                                          ; preds = %30, %.lr.ph, %_ZN6icu_77L16adjustConfidenceEDsi.exit, %_ZN6icu_77L16adjustConfidenceEDsi.exit, %3
  %.1 = phi i32 [ 10, %3 ], [ %.1.i, %_ZN6icu_77L16adjustConfidenceEDsi.exit ], [ %.1.i, %_ZN6icu_77L16adjustConfidenceEDsi.exit ], [ 100, %.lr.ph ], [ %.1.i, %30 ]
  %33 = icmp slt i32 %7, 4
  %34 = icmp samesign ult i32 %.1, 100
  %or.cond6 = and i1 %33, %34
  %spec.store.select = select i1 %or.cond6, i32 0, i32 %.1
  tail call void @_ZN6icu_7712CharsetMatch3setEPNS_9InputTextEPKNS_17CharsetRecognizerEiPKcS7_(ptr noundef nonnull align 8 dereferenceable(32) %2, ptr noundef %1, ptr noundef nonnull %0, i32 noundef %spec.store.select, ptr noundef null, ptr noundef null)
  %35 = icmp ne i32 %spec.store.select, 0
  %36 = zext i1 %35 to i8
  ret i8 %36
}